; ModuleID = '40/1041.c'
source_filename = "40/1041.c"
target datalayout = "e-m:e-p270:32:32-p271:32:32-p272:64:64-i64:64-f80:128-n8:16:32:64-S128"
target triple = "x86_64-pc-linux-gnu"

@.str = private unnamed_addr constant [16 x i8] c"%lf%lf%lf%lf%lf\00", align 1
@.str.1 = private unnamed_addr constant [15 x i8] c"Invalid input\0A\00", align 1
@.str.2 = private unnamed_addr constant [7 x i8] c"%.4lf\0A\00", align 1

; Function Attrs: noinline nounwind uwtable
define dso_local i32 @main(i32 %0, i8** %1) #0 {
  %3 = alloca i32, align 4
  %4 = alloca i32, align 4
  %5 = alloca i8**, align 8
  %6 = alloca double, align 8
  %7 = alloca double, align 8
  %8 = alloca double, align 8
  %9 = alloca double, align 8
  %10 = alloca double, align 8
  %11 = alloca double, align 8
  %12 = alloca double, align 8
  %13 = alloca double, align 8
  store i32 0, i32* %3, align 4
  store i32 %0, i32* %4, align 4
  store i8** %1, i8*** %5, align 8
  %14 = call i32 (i8*, ...) @__isoc99_scanf(i8* getelementptr inbounds ([16 x i8], [16 x i8]* @.str, i64 0, i64 0), double* %6, double* %7, double* %8, double* %9, double* %10)
  %15 = load double, double* %6, align 8
  %16 = load double, double* %7, align 8
  %17 = fadd double %15, %16
  %18 = load double, double* %8, align 8
  %19 = fadd double %17, %18
  %20 = load double, double* %9, align 8
  %21 = fadd double %19, %20
  %22 = fdiv double %21, 2.000000e+00
  store double %22, double* %12, align 8
  %23 = load double, double* %10, align 8
  %24 = fmul double 0x400921FB4D12D84A, %23
  %25 = fdiv double %24, 3.600000e+02
  %26 = call double @cos(double %25) #3
  store double %26, double* %11, align 8
  %27 = load double, double* %12, align 8
  %28 = load double, double* %6, align 8
  %29 = fsub double %27, %28
  %30 = load double, double* %12, align 8
  %31 = load double, double* %7, align 8
  %32 = fsub double %30, %31
  %33 = fmul double %29, %32
  %34 = load double, double* %12, align 8
  %35 = load double, double* %8, align 8
  %36 = fsub double %34, %35
  %37 = fmul double %33, %36
  %38 = load double, double* %12, align 8
  %39 = load double, double* %9, align 8
  %40 = fsub double %38, %39
  %41 = fmul double %37, %40
  %42 = load double, double* %6, align 8
  %43 = load double, double* %7, align 8
  %44 = fmul double %42, %43
  %45 = load double, double* %8, align 8
  %46 = fmul double %44, %45
  %47 = load double, double* %9, align 8
  %48 = fmul double %46, %47
  %49 = load double, double* %11, align 8
  %50 = call double @pow(double %49, double 2.000000e+00) #3
  %51 = fmul double %48, %50
  %52 = fsub double %41, %51
  store double %52, double* %13, align 8
  %53 = load double, double* %13, align 8
  %54 = fcmp olt double %53, 0.000000e+00
  br i1 %54, label %55, label %57

55:                                               ; preds = %2
  %56 = call i32 (i8*, ...) @printf(i8* getelementptr inbounds ([15 x i8], [15 x i8]* @.str.1, i64 0, i64 0))
  br label %61

57:                                               ; preds = %2
  %58 = load double, double* %13, align 8
  %59 = call double @sqrt(double %58) #3
  %60 = call i32 (i8*, ...) @printf(i8* getelementptr inbounds ([7 x i8], [7 x i8]* @.str.2, i64 0, i64 0), double %59)
  br label %61

61:                                               ; preds = %57, %55
  ret i32 0
}

declare dso_local i32 @__isoc99_scanf(i8*, ...) #1

; Function Attrs: nounwind
declare dso_local double @cos(double) #2

; Function Attrs: nounwind
declare dso_local double @pow(double, double) #2

declare dso_local i32 @printf(i8*, ...) #1

; Function Attrs: nounwind
declare dso_local double @sqrt(double) #2


!llvm.module.flags = !{!0}
!llvm.ident = !{!1}

!0 = !{i32 1, !"wchar_size", i32 4}
!1 = !{!"clang version 10.0.0-4ubuntu1 "}
